target datalayout = "e-m:e-p270:32:32-p271:32:32-p272:64:64-i64:64-i128:128-f80:128-n8:16:32:64-S128"
target triple = "x86_64-pc-linux-gnu"

%union.ufmt_args = type { i64 }
%struct.u_scanf_spec_info = type { i32, i16, i16, i8, i8, i8, i8, i8, i8 }
%struct.UFILE = type { ptr, ptr, ptr, %struct.u_localized_string, [1024 x i16], i8, i32 }
%struct.u_localized_string = type { ptr, ptr, ptr, %struct.ULocaleBundle }
%struct.ULocaleBundle = type { ptr, [5 x ptr], i8 }

; Function Attrs: mustprogress uwtable
define internal noundef i32 @_ZL23u_scanf_skip_leading_wsP5UFILEDs(ptr noundef %0, i16 noundef zeroext %1) #0 {
  %3 = alloca ptr, align 8
  %4 = alloca i16, align 2
  %5 = alloca i16, align 2
  %6 = alloca i32, align 4
  %7 = alloca i8, align 1
  store ptr %0, ptr %3, align 8, !tbaa !3
  store i16 %1, ptr %4, align 2, !tbaa !14
  call void @llvm.lifetime.start.p0(i64 2, ptr %5) #5
  call void @llvm.lifetime.start.p0(i64 4, ptr %6) #5
  store i32 0, ptr %6, align 4, !tbaa !12
  call void @llvm.lifetime.start.p0(i64 1, ptr %7) #5
  br label %8

8:                                                ; preds = %28, %2
  %9 = load ptr, ptr %3, align 8, !tbaa !3
  %10 = call signext i8 @ufile_getch_77(ptr noundef %9, ptr noundef %5)
  store i8 %10, ptr %7, align 1, !tbaa !28
  %11 = sext i8 %10 to i32
  %12 = icmp eq i32 %11, 1
  br i1 %12, label %13, label %26

13:                                               ; preds = %8
  %14 = load i16, ptr %5, align 2, !tbaa !14
  %15 = zext i16 %14 to i32
  %16 = load i16, ptr %4, align 2, !tbaa !14
  %17 = zext i16 %16 to i32
  %18 = icmp eq i32 %15, %17
  br i1 %18, label %24, label %19

19:                                               ; preds = %13
  %20 = load i16, ptr %5, align 2, !tbaa !14
  %21 = zext i16 %20 to i32
  %22 = call signext i8 @u_isWhitespace_77(i32 noundef %21)
  %23 = icmp ne i8 %22, 0
  br label %24

24:                                               ; preds = %19, %13
  %25 = phi i1 [ true, %13 ], [ %23, %19 ]
  br label %26

26:                                               ; preds = %24, %8
  %27 = phi i1 [ false, %8 ], [ %25, %24 ]
  br i1 %27, label %28, label %31

28:                                               ; preds = %26
  %29 = load i32, ptr %6, align 4, !tbaa !12
  %30 = add nsw i32 %29, 1
  store i32 %30, ptr %6, align 4, !tbaa !12
  br label %8, !llvm.loop !82

31:                                               ; preds = %26
  %32 = load i8, ptr %7, align 1, !tbaa !28
  %33 = icmp ne i8 %32, 0
  br i1 %33, label %34, label %39

34:                                               ; preds = %31
  %35 = load i16, ptr %5, align 2, !tbaa !14
  %36 = zext i16 %35 to i32
  %37 = load ptr, ptr %3, align 8, !tbaa !3
  %38 = call i32 @u_fungetc_77(i32 noundef %36, ptr noundef %37)
  br label %39

39:                                               ; preds = %34, %31
  %40 = load i32, ptr %6, align 4, !tbaa !12
  call void @llvm.lifetime.end.p0(i64 1, ptr %7) #5
  call void @llvm.lifetime.end.p0(i64 4, ptr %6) #5
  call void @llvm.lifetime.end.p0(i64 2, ptr %5) #5
  ret i32 %40
}

; Function Attrs: mustprogress uwtable
define internal noundef i32 @_ZL26u_scanf_scientific_handlerP5UFILEP17u_scanf_spec_infoP9ufmt_argsPKDsPiS7_(ptr noundef %0, ptr noundef %1, ptr noundef %2, ptr noundef %3, ptr noundef %4, ptr noundef %5) #0 {
  %7 = alloca i32, align 4
  %8 = alloca ptr, align 8
  %9 = alloca ptr, align 8
  %10 = alloca ptr, align 8
  %11 = alloca ptr, align 8
  %12 = alloca ptr, align 8
  %13 = alloca ptr, align 8
  %14 = alloca i32, align 4
  %15 = alloca double, align 8
  %16 = alloca ptr, align 8
  %17 = alloca i32, align 4
  %18 = alloca i32, align 4
  %19 = alloca i32, align 4
  %20 = alloca [8 x i16], align 16
  %21 = alloca i32, align 4
  %22 = alloca i32, align 4
  %23 = alloca [8 x i16], align 16
  %24 = alloca i32, align 4
  store ptr %0, ptr %8, align 8, !tbaa !3
  store ptr %1, ptr %9, align 8, !tbaa !35
  store ptr %2, ptr %10, align 8, !tbaa !50
  store ptr %3, ptr %11, align 8, !tbaa !8
  store ptr %4, ptr %12, align 8, !tbaa !52
  store ptr %5, ptr %13, align 8, !tbaa !52
  call void @llvm.lifetime.start.p0(i64 4, ptr %14) #5
  call void @llvm.lifetime.start.p0(i64 8, ptr %15) #5
  call void @llvm.lifetime.start.p0(i64 8, ptr %16) #5
  call void @llvm.lifetime.start.p0(i64 4, ptr %17) #5
  store i32 0, ptr %17, align 4, !tbaa !12
  call void @llvm.lifetime.start.p0(i64 4, ptr %18) #5
  call void @llvm.lifetime.start.p0(i64 4, ptr %19) #5
  store i32 0, ptr %19, align 4, !tbaa !54
  call void @llvm.lifetime.start.p0(i64 16, ptr %20) #5
  call void @llvm.lifetime.start.p0(i64 4, ptr %21) #5
  call void @llvm.lifetime.start.p0(i64 4, ptr %22) #5
  call void @llvm.lifetime.start.p0(i64 16, ptr %23) #5
  %25 = load ptr, ptr %8, align 8, !tbaa !3
  %26 = load ptr, ptr %9, align 8, !tbaa !35
  %27 = getelementptr inbounds nuw %struct.u_scanf_spec_info, ptr %26, i32 0, i32 2
  %28 = load i16, ptr %27, align 2, !tbaa !40
  %29 = call noundef i32 @_ZL23u_scanf_skip_leading_wsP5UFILEDs(ptr noundef %25, i16 noundef zeroext %28)
  store i32 %29, ptr %18, align 4, !tbaa !12
  %30 = load ptr, ptr %8, align 8, !tbaa !3
  call void @_Z26ufile_fill_uchar_buffer_77P5UFILE(ptr noundef %30)
  %31 = load ptr, ptr %8, align 8, !tbaa !3
  %32 = getelementptr inbounds nuw %struct.UFILE, ptr %31, i32 0, i32 3
  %33 = getelementptr inbounds nuw %struct.u_localized_string, ptr %32, i32 0, i32 1
  %34 = load ptr, ptr %33, align 8, !tbaa !56
  %35 = load ptr, ptr %8, align 8, !tbaa !3
  %36 = getelementptr inbounds nuw %struct.UFILE, ptr %35, i32 0, i32 3
  %37 = getelementptr inbounds nuw %struct.u_localized_string, ptr %36, i32 0, i32 0
  %38 = load ptr, ptr %37, align 8, !tbaa !63
  %39 = ptrtoint ptr %34 to i64
  %40 = ptrtoint ptr %38 to i64
  %41 = sub i64 %39, %40
  %42 = sdiv exact i64 %41, 2
  %43 = trunc i64 %42 to i32
  store i32 %43, ptr %14, align 4, !tbaa !12
  %44 = load ptr, ptr %9, align 8, !tbaa !35
  %45 = getelementptr inbounds nuw %struct.u_scanf_spec_info, ptr %44, i32 0, i32 0
  %46 = load i32, ptr %45, align 4, !tbaa !38
  %47 = icmp ne i32 %46, -1
  br i1 %47, label %48, label %62

48:                                               ; preds = %6
  %49 = load i32, ptr %14, align 4, !tbaa !12
  %50 = load ptr, ptr %9, align 8, !tbaa !35
  %51 = getelementptr inbounds nuw %struct.u_scanf_spec_info, ptr %50, i32 0, i32 0
  %52 = load i32, ptr %51, align 4, !tbaa !38
  %53 = icmp slt i32 %49, %52
  br i1 %53, label %54, label %56

54:                                               ; preds = %48
  %55 = load i32, ptr %14, align 4, !tbaa !12
  br label %60

56:                                               ; preds = %48
  %57 = load ptr, ptr %9, align 8, !tbaa !35
  %58 = getelementptr inbounds nuw %struct.u_scanf_spec_info, ptr %57, i32 0, i32 0
  %59 = load i32, ptr %58, align 4, !tbaa !38
  br label %60

60:                                               ; preds = %56, %54
  %61 = phi i32 [ %55, %54 ], [ %59, %56 ]
  store i32 %61, ptr %14, align 4, !tbaa !12
  br label %62

62:                                               ; preds = %60, %6
  %63 = load ptr, ptr %8, align 8, !tbaa !3
  %64 = getelementptr inbounds nuw %struct.UFILE, ptr %63, i32 0, i32 3
  %65 = getelementptr inbounds nuw %struct.u_localized_string, ptr %64, i32 0, i32 3
  %66 = call ptr @u_locbund_getNumberFormat_77(ptr noundef %65, i32 noundef 4)
  store ptr %66, ptr %16, align 8, !tbaa !64
  %67 = load ptr, ptr %16, align 8, !tbaa !64
  %68 = icmp eq ptr %67, null
  br i1 %68, label %69, label %70

69:                                               ; preds = %62
  store i32 0, ptr %7, align 4
  store i32 1, ptr %24, align 4
  br label %166

70:                                               ; preds = %62
  %71 = load ptr, ptr %16, align 8, !tbaa !64
  %72 = getelementptr inbounds [8 x i16], ptr %20, i64 0, i64 0
  %73 = call i32 @unum_getSymbol_77(ptr noundef %71, i32 noundef 11, ptr noundef %72, i32 noundef 16, ptr noundef %19)
  store i32 %73, ptr %21, align 4, !tbaa !12
  %74 = load ptr, ptr %9, align 8, !tbaa !35
  %75 = getelementptr inbounds nuw %struct.u_scanf_spec_info, ptr %74, i32 0, i32 1
  %76 = load i16, ptr %75, align 4, !tbaa !39
  %77 = zext i16 %76 to i32
  %78 = icmp eq i32 %77, 101
  br i1 %78, label %79, label %89

79:                                               ; preds = %70
  %80 = getelementptr inbounds [8 x i16], ptr %23, i64 0, i64 0
  %81 = getelementptr inbounds [8 x i16], ptr %20, i64 0, i64 0
  %82 = load i32, ptr %21, align 4, !tbaa !12
  %83 = load ptr, ptr %8, align 8, !tbaa !3
  %84 = getelementptr inbounds nuw %struct.UFILE, ptr %83, i32 0, i32 3
  %85 = getelementptr inbounds nuw %struct.u_localized_string, ptr %84, i32 0, i32 3
  %86 = getelementptr inbounds nuw %struct.ULocaleBundle, ptr %85, i32 0, i32 0
  %87 = load ptr, ptr %86, align 8, !tbaa !66
  %88 = call i32 @u_strToLower_77(ptr noundef %80, i32 noundef 16, ptr noundef %81, i32 noundef %82, ptr noundef %87, ptr noundef %19)
  store i32 %88, ptr %22, align 4, !tbaa !12
  br label %99

89:                                               ; preds = %70
  %90 = getelementptr inbounds [8 x i16], ptr %23, i64 0, i64 0
  %91 = getelementptr inbounds [8 x i16], ptr %20, i64 0, i64 0
  %92 = load i32, ptr %21, align 4, !tbaa !12
  %93 = load ptr, ptr %8, align 8, !tbaa !3
  %94 = getelementptr inbounds nuw %struct.UFILE, ptr %93, i32 0, i32 3
  %95 = getelementptr inbounds nuw %struct.u_localized_string, ptr %94, i32 0, i32 3
  %96 = getelementptr inbounds nuw %struct.ULocaleBundle, ptr %95, i32 0, i32 0
  %97 = load ptr, ptr %96, align 8, !tbaa !66
  %98 = call i32 @u_strToUpper_77(ptr noundef %90, i32 noundef 16, ptr noundef %91, i32 noundef %92, ptr noundef %97, ptr noundef %19)
  store i32 %98, ptr %22, align 4, !tbaa !12
  br label %99

99:                                               ; preds = %89, %79
  %100 = load ptr, ptr %16, align 8, !tbaa !64
  %101 = getelementptr inbounds [8 x i16], ptr %23, i64 0, i64 0
  %102 = load i32, ptr %22, align 4, !tbaa !12
  call void @unum_setSymbol_77(ptr noundef %100, i32 noundef 11, ptr noundef %101, i32 noundef %102, ptr noundef %19)
  %103 = load ptr, ptr %8, align 8, !tbaa !3
  %104 = load ptr, ptr %16, align 8, !tbaa !64
  %105 = call noundef i32 @_ZL34u_scanf_skip_leading_positive_signP5UFILEPPvP10UErrorCode(ptr noundef %103, ptr noundef %104, ptr noundef %19)
  %106 = load i32, ptr %18, align 4, !tbaa !12
  %107 = add nsw i32 %106, %105
  store i32 %107, ptr %18, align 4, !tbaa !12
  %108 = load ptr, ptr %16, align 8, !tbaa !64
  %109 = load ptr, ptr %8, align 8, !tbaa !3
  %110 = getelementptr inbounds nuw %struct.UFILE, ptr %109, i32 0, i32 3
  %111 = getelementptr inbounds nuw %struct.u_localized_string, ptr %110, i32 0, i32 0
  %112 = load ptr, ptr %111, align 8, !tbaa !63
  %113 = load i32, ptr %14, align 4, !tbaa !12
  %114 = call double @unum_parseDouble_77(ptr noundef %108, ptr noundef %112, i32 noundef %113, ptr noundef %17, ptr noundef %19)
  store double %114, ptr %15, align 8, !tbaa !67
  %115 = load ptr, ptr %9, align 8, !tbaa !35
  %116 = getelementptr inbounds nuw %struct.u_scanf_spec_info, ptr %115, i32 0, i32 3
  %117 = load i8, ptr %116, align 4, !tbaa !41
  %118 = icmp ne i8 %117, 0
  br i1 %118, label %148, label %119

119:                                              ; preds = %99
  %120 = load ptr, ptr %9, align 8, !tbaa !35
  %121 = getelementptr inbounds nuw %struct.u_scanf_spec_info, ptr %120, i32 0, i32 6
  %122 = load i8, ptr %121, align 1, !tbaa !44
  %123 = icmp ne i8 %122, 0
  br i1 %123, label %124, label %129

124:                                              ; preds = %119
  %125 = load double, ptr %15, align 8, !tbaa !67
  %126 = load ptr, ptr %10, align 8, !tbaa !50
  %127 = getelementptr inbounds %union.ufmt_args, ptr %126, i64 0
  %128 = load ptr, ptr %127, align 8, !tbaa !28
  store double %125, ptr %128, align 8, !tbaa !67
  br label %147

129:                                              ; preds = %119
  %130 = load ptr, ptr %9, align 8, !tbaa !35
  %131 = getelementptr inbounds nuw %struct.u_scanf_spec_info, ptr %130, i32 0, i32 4
  %132 = load i8, ptr %131, align 1, !tbaa !42
  %133 = icmp ne i8 %132, 0
  br i1 %133, label %134, label %140

134:                                              ; preds = %129
  %135 = load double, ptr %15, align 8, !tbaa !67
  %136 = fpext double %135 to x86_fp80
  %137 = load ptr, ptr %10, align 8, !tbaa !50
  %138 = getelementptr inbounds %union.ufmt_args, ptr %137, i64 0
  %139 = load ptr, ptr %138, align 8, !tbaa !28
  store x86_fp80 %136, ptr %139, align 16, !tbaa !69
  br label %146

140:                                              ; preds = %129
  %141 = load double, ptr %15, align 8, !tbaa !67
  %142 = fptrunc double %141 to float
  %143 = load ptr, ptr %10, align 8, !tbaa !50
  %144 = getelementptr inbounds %union.ufmt_args, ptr %143, i64 0
  %145 = load ptr, ptr %144, align 8, !tbaa !28
  store float %142, ptr %145, align 4, !tbaa !71
  br label %146

146:                                              ; preds = %140, %134
  br label %147

147:                                              ; preds = %146, %124
  br label %148

148:                                              ; preds = %147, %99
  %149 = load i32, ptr %17, align 4, !tbaa !12
  %150 = load ptr, ptr %8, align 8, !tbaa !3
  %151 = getelementptr inbounds nuw %struct.UFILE, ptr %150, i32 0, i32 3
  %152 = getelementptr inbounds nuw %struct.u_localized_string, ptr %151, i32 0, i32 0
  %153 = load ptr, ptr %152, align 8, !tbaa !63
  %154 = sext i32 %149 to i64
  %155 = getelementptr inbounds i16, ptr %153, i64 %154
  store ptr %155, ptr %152, align 8, !tbaa !63
  %156 = load ptr, ptr %9, align 8, !tbaa !35
  %157 = getelementptr inbounds nuw %struct.u_scanf_spec_info, ptr %156, i32 0, i32 3
  %158 = load i8, ptr %157, align 4, !tbaa !41
  %159 = icmp ne i8 %158, 0
  %160 = xor i1 %159, true
  %161 = zext i1 %160 to i32
  %162 = load ptr, ptr %13, align 8, !tbaa !52
  store i32 %161, ptr %162, align 4, !tbaa !12
  %163 = load i32, ptr %17, align 4, !tbaa !12
  %164 = load i32, ptr %18, align 4, !tbaa !12
  %165 = add nsw i32 %163, %164
  store i32 %165, ptr %7, align 4
  store i32 1, ptr %24, align 4
  br label %166

166:                                              ; preds = %148, %69
  call void @llvm.lifetime.end.p0(i64 16, ptr %23) #5
  call void @llvm.lifetime.end.p0(i64 4, ptr %22) #5
  call void @llvm.lifetime.end.p0(i64 4, ptr %21) #5
  call void @llvm.lifetime.end.p0(i64 16, ptr %20) #5
  call void @llvm.lifetime.end.p0(i64 4, ptr %19) #5
  call void @llvm.lifetime.end.p0(i64 4, ptr %18) #5
  call void @llvm.lifetime.end.p0(i64 4, ptr %17) #5
  call void @llvm.lifetime.end.p0(i64 8, ptr %16) #5
  call void @llvm.lifetime.end.p0(i64 8, ptr %15) #5
  call void @llvm.lifetime.end.p0(i64 4, ptr %14) #5
  %167 = load i32, ptr %7, align 4
  ret i32 %167
}