; Function Attrs: mustprogress uwtable
define internal noundef i32 @_ZL26u_scanf_scientific_handlerP5UFILEP17u_scanf_spec_infoP9ufmt_argsPKDsPiS7_(ptr noundef %0, ptr noundef readonly captures(none) %1, ptr noundef readonly captures(none) %2, ptr readnone captures(none) %3, ptr readnone captures(none) %4, ptr noundef writeonly captures(none) %5) #0 {
  %7 = alloca i16, align 2
  %8 = alloca i32, align 4
  %9 = alloca i32, align 4
  %10 = alloca [8 x i16], align 16
  %11 = alloca [8 x i16], align 16
  call void @llvm.lifetime.start.p0(i64 4, ptr nonnull %8) #6
  store i32 0, ptr %8, align 4, !tbaa !3
  call void @llvm.lifetime.start.p0(i64 4, ptr nonnull %9) #6
  store i32 0, ptr %9, align 4, !tbaa !36
  call void @llvm.lifetime.start.p0(i64 16, ptr nonnull %10) #6
  call void @llvm.lifetime.start.p0(i64 16, ptr nonnull %11) #6
  %12 = getelementptr inbounds nuw i8, ptr %1, i64 6
  %13 = load i16, ptr %12, align 2, !tbaa !16
  call void @llvm.lifetime.start.p0(i64 2, ptr nonnull %7) #6
  br label %14

14:                                               ; preds = %.critedge2.i, %6
  %.0.i = phi i32 [ 0, %6 ], [ %22, %.critedge2.i ]
  %15 = call signext i8 @ufile_getch_77(ptr noundef %0, ptr noundef nonnull %7)
  switch i8 %15, label %.critedge.i [
    i8 1, label %16
    i8 0, label %_ZL23u_scanf_skip_leading_wsP5UFILEDs.exit
  ]

16:                                               ; preds = %14
  %17 = load i16, ptr %7, align 2, !tbaa !7
  %18 = icmp eq i16 %17, %13
  br i1 %18, label %.critedge2.i, label %19

19:                                               ; preds = %16
  %20 = zext i16 %17 to i32
  %21 = call signext i8 @u_isWhitespace_77(i32 noundef %20)
  %.not.i = icmp eq i8 %21, 0
  br i1 %.not.i, label %.critedge.i, label %.critedge2.i

.critedge2.i:                                     ; preds = %19, %16
  %22 = add nuw nsw i32 %.0.i, 1
  br label %14, !llvm.loop !38

.critedge.i:                                      ; preds = %19, %14
  %23 = load i16, ptr %7, align 2, !tbaa !7
  %24 = zext i16 %23 to i32
  %25 = call i32 @u_fungetc_77(i32 noundef %24, ptr noundef %0)
  br label %_ZL23u_scanf_skip_leading_wsP5UFILEDs.exit

_ZL23u_scanf_skip_leading_wsP5UFILEDs.exit:       ; preds = %14, %.critedge.i
  call void @llvm.lifetime.end.p0(i64 2, ptr nonnull %7) #6
  call void @_Z26ufile_fill_uchar_buffer_77P5UFILE(ptr noundef %0)
  %26 = getelementptr inbounds nuw i8, ptr %0, i64 24
  %27 = getelementptr inbounds nuw i8, ptr %0, i64 32
  %28 = load ptr, ptr %27, align 8, !tbaa !39
  %29 = load ptr, ptr %26, align 8, !tbaa !47
  %30 = ptrtoint ptr %28 to i64
  %31 = ptrtoint ptr %29 to i64
  %32 = sub i64 %30, %31
  %33 = lshr exact i64 %32, 1
  %34 = trunc i64 %33 to i32
  %35 = load i32, ptr %1, align 4, !tbaa !14
  %.not = icmp eq i32 %35, -1
  %. = call i32 @llvm.smin.i32(i32 %35, i32 %34)
  %.040 = select i1 %.not, i32 %34, i32 %.
  %36 = getelementptr inbounds nuw i8, ptr %0, i64 48
  %37 = call ptr @u_locbund_getNumberFormat_77(ptr noundef nonnull %36, i32 noundef 4)
  %38 = icmp eq ptr %37, null
  br i1 %38, label %76, label %39

39:                                               ; preds = %_ZL23u_scanf_skip_leading_wsP5UFILEDs.exit
  %40 = call i32 @unum_getSymbol_77(ptr noundef nonnull %37, i32 noundef 11, ptr noundef nonnull %10, i32 noundef 16, ptr noundef nonnull %9)
  %41 = getelementptr inbounds nuw i8, ptr %1, i64 4
  %42 = load i16, ptr %41, align 4, !tbaa !15
  %43 = icmp eq i16 %42, 101
  %44 = load ptr, ptr %36, align 8, !tbaa !48
  br i1 %43, label %45, label %47

45:                                               ; preds = %39
  %46 = call i32 @u_strToLower_77(ptr noundef nonnull %11, i32 noundef 16, ptr noundef nonnull %10, i32 noundef %40, ptr noundef %44, ptr noundef nonnull %9)
  br label %49

47:                                               ; preds = %39
  %48 = call i32 @u_strToUpper_77(ptr noundef nonnull %11, i32 noundef 16, ptr noundef nonnull %10, i32 noundef %40, ptr noundef %44, ptr noundef nonnull %9)
  br label %49

49:                                               ; preds = %47, %45
  %.0 = phi i32 [ %46, %45 ], [ %48, %47 ]
  call void @unum_setSymbol_77(ptr noundef nonnull %37, i32 noundef 11, ptr noundef nonnull %11, i32 noundef %.0, ptr noundef nonnull %9)
  %.val = load i32, ptr %9, align 4, !tbaa !36
  %50 = call fastcc noundef i32 @_ZL34u_scanf_skip_leading_positive_signP5UFILEPPvP10UErrorCode(ptr noundef nonnull %0, ptr noundef nonnull %37, i32 %.val)
  %51 = add nsw i32 %50, %.0.i
  %52 = load ptr, ptr %26, align 8, !tbaa !47
  %53 = call double @unum_parseDouble_77(ptr noundef nonnull %37, ptr noundef %52, i32 noundef %.040, ptr noundef nonnull %8, ptr noundef nonnull %9)
  %54 = getelementptr inbounds nuw i8, ptr %1, i64 8
  %55 = load i8, ptr %54, align 4, !tbaa !19
  %.not44 = icmp eq i8 %55, 0
  br i1 %.not44, label %56, label %69

56:                                               ; preds = %49
  %57 = getelementptr inbounds nuw i8, ptr %1, i64 11
  %58 = load i8, ptr %57, align 1, !tbaa !24
  %.not45 = icmp eq i8 %58, 0
  br i1 %.not45, label %61, label %59

59:                                               ; preds = %56
  %60 = load ptr, ptr %2, align 8, !tbaa !33
  store double %53, ptr %60, align 8, !tbaa !49
  br label %69

61:                                               ; preds = %56
  %62 = getelementptr inbounds nuw i8, ptr %1, i64 9
  %63 = load i8, ptr %62, align 1, !tbaa !25
  %.not46 = icmp eq i8 %63, 0
  %64 = load ptr, ptr %2, align 8, !tbaa !33
  br i1 %.not46, label %67, label %65

65:                                               ; preds = %61
  %66 = fpext double %53 to x86_fp80
  store x86_fp80 %66, ptr %64, align 16, !tbaa !51
  br label %69

67:                                               ; preds = %61
  %68 = fptrunc double %53 to float
  store float %68, ptr %64, align 4, !tbaa !53
  br label %69

69:                                               ; preds = %59, %67, %65, %49
  %70 = load i32, ptr %8, align 4, !tbaa !3
  %71 = load ptr, ptr %26, align 8, !tbaa !47
  %72 = sext i32 %70 to i64
  %73 = getelementptr inbounds i16, ptr %71, i64 %72
  store ptr %73, ptr %26, align 8, !tbaa !47
  %74 = zext i1 %.not44 to i32
  store i32 %74, ptr %5, align 4, !tbaa !3
  %75 = add nsw i32 %51, %70
  br label %76

76:                                               ; preds = %_ZL23u_scanf_skip_leading_wsP5UFILEDs.exit, %69
  %.039 = phi i32 [ %75, %69 ], [ 0, %_ZL23u_scanf_skip_leading_wsP5UFILEDs.exit ]
  call void @llvm.lifetime.end.p0(i64 16, ptr nonnull %11) #6
  call void @llvm.lifetime.end.p0(i64 16, ptr nonnull %10) #6
  call void @llvm.lifetime.end.p0(i64 4, ptr nonnull %9) #6
  call void @llvm.lifetime.end.p0(i64 4, ptr nonnull %8) #6
  ret i32 %.039
}